target datalayout = "e-m:e-p270:32:32-p271:32:32-p272:64:64-i64:64-i128:128-f80:128-n8:16:32:64-S128"
target triple = "x86_64-pc-linux-gnu"

%struct.expert_field = type { i32, i32 }

@hf_dlr_rppl_dev_ip_addr = internal global i32 0, align 4
@hf_dlr_rppl_dev_physical_address = internal global i32 0, align 4
@ei_mal_dlr_ring_protocol_participants_list = internal global %struct.expert_field zeroinitializer, align 4

; Function Attrs: null_pointer_is_valid sspstrong uwtable
define internal i32 @dissect_dlr_ring_protocol_participants_list(ptr noundef %0, ptr noundef %1, ptr noundef %2, ptr noundef %3, i32 noundef %4, i32 noundef %5) #0 {
  %7 = alloca i32, align 4
  %8 = alloca ptr, align 8
  %9 = alloca ptr, align 8
  %10 = alloca ptr, align 8
  %11 = alloca ptr, align 8
  %12 = alloca i32, align 4
  %13 = alloca i32, align 4
  %14 = alloca i32, align 4
  %15 = alloca i32, align 4
  store ptr %0, ptr %8, align 8
  store ptr %1, ptr %9, align 8
  store ptr %2, ptr %10, align 8
  store ptr %3, ptr %11, align 8
  store i32 %4, ptr %12, align 4
  store i32 %5, ptr %13, align 4
  call void @llvm.lifetime.start.p0(i64 4, ptr %14) #14
  %16 = load i32, ptr %13, align 4
  %17 = srem i32 %16, 10
  %18 = icmp ne i32 %17, 0
  br i1 %18, label %19, label %24

19:                                               ; preds = %6
  %20 = load ptr, ptr %8, align 8
  %21 = load ptr, ptr %10, align 8
  %22 = call ptr @expert_add_info(ptr noundef %20, ptr noundef %21, ptr noundef @ei_mal_dlr_ring_protocol_participants_list)
  %23 = load i32, ptr %13, align 4
  store i32 %23, ptr %7, align 4
  store i32 1, ptr %15, align 4
  br label %49

24:                                               ; preds = %6
  store i32 0, ptr %14, align 4
  br label %25

25:                                               ; preds = %29, %24
  %26 = load i32, ptr %14, align 4
  %27 = load i32, ptr %13, align 4
  %28 = icmp slt i32 %26, %27
  br i1 %28, label %29, label %47

29:                                               ; preds = %25
  %30 = load ptr, ptr %9, align 8
  %31 = load i32, ptr @hf_dlr_rppl_dev_ip_addr, align 4
  %32 = load ptr, ptr %11, align 8
  %33 = load i32, ptr %12, align 4
  %34 = load i32, ptr %14, align 4
  %35 = add i32 %33, %34
  %36 = call ptr @proto_tree_add_item(ptr noundef %30, i32 noundef %31, ptr noundef %32, i32 noundef %35, i32 noundef 4, i32 noundef -2147483648)
  %37 = load ptr, ptr %9, align 8
  %38 = load i32, ptr @hf_dlr_rppl_dev_physical_address, align 4
  %39 = load ptr, ptr %11, align 8
  %40 = load i32, ptr %12, align 4
  %41 = load i32, ptr %14, align 4
  %42 = add i32 %40, %41
  %43 = add i32 %42, 4
  %44 = call ptr @proto_tree_add_item(ptr noundef %37, i32 noundef %38, ptr noundef %39, i32 noundef %43, i32 noundef 6, i32 noundef 0)
  %45 = load i32, ptr %14, align 4
  %46 = add i32 %45, 10
  store i32 %46, ptr %14, align 4
  br label %25, !llvm.loop !13

47:                                               ; preds = %25
  %48 = load i32, ptr %13, align 4
  store i32 %48, ptr %7, align 4
  store i32 1, ptr %15, align 4
  br label %49

49:                                               ; preds = %47, %19
  call void @llvm.lifetime.end.p0(i64 4, ptr %14) #14
  %50 = load i32, ptr %7, align 4
  ret i32 %50
}